(dp0
S'keys'
p1
(dp2
S'Shift'
p3
I01
sS'Alt'
p4
I00
sS'Ctrl'
p5
I01
sS'Extra'
p6
S'V'
p7
ssS'auto'
p8
I00
sS'percent'
p9
I01
sS'ratioKeep'
p10
S'either'
p11
sS'width'
p12
V50
p13
sS'height'
p14
V50
p15
sS'isUpScalingDisabled'
p16
I01
s.